; ModuleID = 'source-C-CXX/61/14.cpp'
source_filename = "source-C-CXX/61/14.cpp"
target datalayout = "e-m:e-p270:32:32-p271:32:32-p272:64:64-i64:64-f80:128-n8:16:32:64-S128"
target triple = "x86_64-pc-linux-gnu"

%"class.std::ios_base::Init" = type { i8 }
%"class.std::basic_istream" = type { i32 (...)**, i64, %"class.std::basic_ios" }
%"class.std::basic_ios" = type { %"class.std::ios_base", %"class.std::basic_ostream"*, i8, i8, %"class.std::basic_streambuf"*, %"class.std::ctype"*, %"class.std::num_put"*, %"class.std::num_get"* }
%"class.std::ios_base" = type { i32 (...)**, i64, i64, i32, i32, i32, %"struct.std::ios_base::_Callback_list"*, %"struct.std::ios_base::_Words", [8 x %"struct.std::ios_base::_Words"], i32, %"struct.std::ios_base::_Words"*, %"class.std::locale" }
%"struct.std::ios_base::_Callback_list" = type { %"struct.std::ios_base::_Callback_list"*, void (i32, %"class.std::ios_base"*, i32)*, i32, i32 }
%"struct.std::ios_base::_Words" = type { i8*, i64 }
%"class.std::locale" = type { %"class.std::locale::_Impl"* }
%"class.std::locale::_Impl" = type { i32, %"class.std::locale::facet"**, i64, %"class.std::locale::facet"**, i8** }
%"class.std::locale::facet" = type <{ i32 (...)**, i32, [4 x i8] }>
%"class.std::basic_ostream" = type { i32 (...)**, %"class.std::basic_ios" }
%"class.std::basic_streambuf" = type { i32 (...)**, i8*, i8*, i8*, i8*, i8*, i8*, %"class.std::locale" }
%"class.std::ctype" = type <{ %"class.std::locale::facet.base", [4 x i8], %struct.__locale_struct*, i8, [7 x i8], i32*, i32*, i16*, i8, [256 x i8], [256 x i8], i8, [6 x i8] }>
%"class.std::locale::facet.base" = type <{ i32 (...)**, i32 }>
%struct.__locale_struct = type { [13 x %struct.__locale_data*], i16*, i32*, i32*, [13 x i8*] }
%struct.__locale_data = type opaque
%"class.std::num_put" = type { %"class.std::locale::facet.base", [4 x i8] }
%"class.std::num_get" = type { %"class.std::locale::facet.base", [4 x i8] }

@_ZStL8__ioinit = internal global %"class.std::ios_base::Init" zeroinitializer, align 1
@__dso_handle = external hidden global i8
@_ZSt3cin = external global %"class.std::basic_istream", align 8
@_ZSt4cout = external global %"class.std::basic_ostream", align 8
@llvm.global_ctors = appending global [1 x { i32, void ()*, i8* }] [{ i32, void ()*, i8* } { i32 65535, void ()* @_GLOBAL__sub_I_14.cpp, i8* null }]

declare void @_ZNSt8ios_base4InitC1Ev(%"class.std::ios_base::Init"* nonnull align 1 dereferenceable(1)) unnamed_addr #0

; Function Attrs: nounwind
declare void @_ZNSt8ios_base4InitD1Ev(%"class.std::ios_base::Init"* nonnull align 1 dereferenceable(1)) unnamed_addr #1

; Function Attrs: nofree nounwind
declare i32 @__cxa_atexit(void (i8*)*, i8*, i8*) local_unnamed_addr #2

; Function Attrs: mustprogress norecurse sspstrong uwtable
define dso_local i32 @main() local_unnamed_addr #3 {
  %1 = alloca i8, align 1
  %2 = alloca [100 x i8], align 16
  %3 = getelementptr inbounds [100 x i8], [100 x i8]* %2, i64 0, i64 0
  call void @llvm.lifetime.start.p0i8(i64 100, i8* nonnull %3) #8
  %4 = load i8*, i8** bitcast (%"class.std::basic_istream"* @_ZSt3cin to i8**), align 8, !tbaa !5
  %5 = getelementptr i8, i8* %4, i64 -24
  %6 = bitcast i8* %5 to i64*
  %7 = load i64, i64* %6, align 8
  %8 = add nsw i64 %7, 240
  %9 = getelementptr inbounds i8, i8* bitcast (%"class.std::basic_istream"* @_ZSt3cin to i8*), i64 %8
  %10 = bitcast i8* %9 to %"class.std::ctype"**
  %11 = load %"class.std::ctype"*, %"class.std::ctype"** %10, align 8, !tbaa !8
  %12 = icmp eq %"class.std::ctype"* %11, null
  br i1 %12, label %13, label %14

13:                                               ; preds = %0
  tail call void @_ZSt16__throw_bad_castv() #9
  unreachable

14:                                               ; preds = %0
  %15 = getelementptr inbounds %"class.std::ctype", %"class.std::ctype"* %11, i64 0, i32 8
  %16 = load i8, i8* %15, align 8, !tbaa !13
  %17 = icmp eq i8 %16, 0
  br i1 %17, label %21, label %18

18:                                               ; preds = %14
  %19 = getelementptr inbounds %"class.std::ctype", %"class.std::ctype"* %11, i64 0, i32 9, i64 10
  %20 = load i8, i8* %19, align 1, !tbaa !15
  br label %27

21:                                               ; preds = %14
  tail call void @_ZNKSt5ctypeIcE13_M_widen_initEv(%"class.std::ctype"* nonnull align 8 dereferenceable(570) %11)
  %22 = bitcast %"class.std::ctype"* %11 to i8 (%"class.std::ctype"*, i8)***
  %23 = load i8 (%"class.std::ctype"*, i8)**, i8 (%"class.std::ctype"*, i8)*** %22, align 8, !tbaa !5
  %24 = getelementptr inbounds i8 (%"class.std::ctype"*, i8)*, i8 (%"class.std::ctype"*, i8)** %23, i64 6
  %25 = load i8 (%"class.std::ctype"*, i8)*, i8 (%"class.std::ctype"*, i8)** %24, align 8
  %26 = tail call signext i8 %25(%"class.std::ctype"* nonnull align 8 dereferenceable(570) %11, i8 signext 10)
  br label %27

27:                                               ; preds = %18, %21
  %28 = phi i8 [ %20, %18 ], [ %26, %21 ]
  %29 = call nonnull align 8 dereferenceable(16) %"class.std::basic_istream"* @_ZNSi7getlineEPclc(%"class.std::basic_istream"* nonnull align 8 dereferenceable(16) @_ZSt3cin, i8* nonnull %3, i64 100, i8 signext %28)
  br label %30

30:                                               ; preds = %69, %27
  %31 = phi i32 [ 0, %27 ], [ %72, %69 ]
  %32 = phi i32 [ 0, %27 ], [ %71, %69 ]
  %33 = sext i32 %31 to i64
  %34 = getelementptr inbounds [100 x i8], [100 x i8]* %2, i64 0, i64 %33
  %35 = load i8, i8* %34, align 1, !tbaa !15
  switch i8 %35, label %41 [
    i8 0, label %36
    i8 32, label %39
  ]

36:                                               ; preds = %30
  %37 = call i64 @strlen(i8* noundef nonnull %3) #10
  %38 = icmp sgt i64 %37, 0
  br i1 %38, label %73, label %81

39:                                               ; preds = %30
  %40 = add nsw i32 %32, 1
  br label %41

41:                                               ; preds = %30, %39
  %42 = phi i32 [ %40, %39 ], [ %32, %30 ]
  %43 = icmp eq i32 %42, 1
  br i1 %43, label %44, label %47

44:                                               ; preds = %41
  %45 = icmp eq i8 %35, 32
  %46 = zext i1 %45 to i32
  br label %69

47:                                               ; preds = %41
  %48 = icmp slt i32 %42, 2
  %49 = icmp eq i8 %35, 32
  %50 = select i1 %48, i1 true, i1 %49
  br i1 %50, label %69, label %51

51:                                               ; preds = %47
  %52 = sub nsw i32 %31, %42
  %53 = zext i32 %42 to i64
  %54 = add nsw i64 %53, -1
  %55 = add nsw i32 %52, 1
  %56 = sext i32 %55 to i64
  %57 = getelementptr inbounds [100 x i8], [100 x i8]* %2, i64 0, i64 %56
  %58 = load i8, i8* %57, align 1, !tbaa !15
  %59 = icmp eq i8 %58, 0
  br i1 %59, label %69, label %60

60:                                               ; preds = %51, %60
  %61 = phi i64 [ %65, %60 ], [ %56, %51 ]
  %62 = phi i8* [ %66, %60 ], [ %57, %51 ]
  %63 = getelementptr inbounds i8, i8* %62, i64 %54
  %64 = load i8, i8* %63, align 1, !tbaa !15
  store i8 %64, i8* %62, align 1, !tbaa !15
  %65 = add i64 %61, 1
  %66 = getelementptr inbounds [100 x i8], [100 x i8]* %2, i64 0, i64 %65
  %67 = load i8, i8* %66, align 1, !tbaa !15
  %68 = icmp eq i8 %67, 0
  br i1 %68, label %69, label %60, !llvm.loop !16

69:                                               ; preds = %60, %51, %44, %47
  %70 = phi i32 [ %31, %47 ], [ %31, %44 ], [ %52, %51 ], [ %52, %60 ]
  %71 = phi i32 [ %42, %47 ], [ %46, %44 ], [ 0, %51 ], [ 0, %60 ]
  %72 = add nsw i32 %70, 1
  br label %30, !llvm.loop !18

73:                                               ; preds = %36, %73
  %74 = phi i8* [ %77, %73 ], [ %3, %36 ]
  %75 = load i8, i8* %74, align 1, !tbaa !15
  call void @llvm.lifetime.start.p0i8(i64 1, i8* nonnull %1)
  store i8 %75, i8* %1, align 1, !tbaa !15
  %76 = call nonnull align 8 dereferenceable(8) %"class.std::basic_ostream"* @_ZSt16__ostream_insertIcSt11char_traitsIcEERSt13basic_ostreamIT_T0_ES6_PKS3_l(%"class.std::basic_ostream"* nonnull align 8 dereferenceable(8) @_ZSt4cout, i8* nonnull %1, i64 1)
  call void @llvm.lifetime.end.p0i8(i64 1, i8* nonnull %1)
  %77 = getelementptr inbounds i8, i8* %74, i64 1
  %78 = call i64 @strlen(i8* noundef nonnull %3) #10
  %79 = getelementptr inbounds [100 x i8], [100 x i8]* %2, i64 0, i64 %78
  %80 = icmp ult i8* %77, %79
  br i1 %80, label %73, label %81, !llvm.loop !19

81:                                               ; preds = %73, %36
  %82 = load i8*, i8** bitcast (%"class.std::basic_ostream"* @_ZSt4cout to i8**), align 8, !tbaa !5
  %83 = getelementptr i8, i8* %82, i64 -24
  %84 = bitcast i8* %83 to i64*
  %85 = load i64, i64* %84, align 8
  %86 = add nsw i64 %85, 240
  %87 = getelementptr inbounds i8, i8* bitcast (%"class.std::basic_ostream"* @_ZSt4cout to i8*), i64 %86
  %88 = bitcast i8* %87 to %"class.std::ctype"**
  %89 = load %"class.std::ctype"*, %"class.std::ctype"** %88, align 8, !tbaa !8
  %90 = icmp eq %"class.std::ctype"* %89, null
  br i1 %90, label %91, label %92

91:                                               ; preds = %81
  call void @_ZSt16__throw_bad_castv() #9
  unreachable

92:                                               ; preds = %81
  %93 = getelementptr inbounds %"class.std::ctype", %"class.std::ctype"* %89, i64 0, i32 8
  %94 = load i8, i8* %93, align 8, !tbaa !13
  %95 = icmp eq i8 %94, 0
  br i1 %95, label %99, label %96

96:                                               ; preds = %92
  %97 = getelementptr inbounds %"class.std::ctype", %"class.std::ctype"* %89, i64 0, i32 9, i64 10
  %98 = load i8, i8* %97, align 1, !tbaa !15
  br label %105

99:                                               ; preds = %92
  call void @_ZNKSt5ctypeIcE13_M_widen_initEv(%"class.std::ctype"* nonnull align 8 dereferenceable(570) %89)
  %100 = bitcast %"class.std::ctype"* %89 to i8 (%"class.std::ctype"*, i8)***
  %101 = load i8 (%"class.std::ctype"*, i8)**, i8 (%"class.std::ctype"*, i8)*** %100, align 8, !tbaa !5
  %102 = getelementptr inbounds i8 (%"class.std::ctype"*, i8)*, i8 (%"class.std::ctype"*, i8)** %101, i64 6
  %103 = load i8 (%"class.std::ctype"*, i8)*, i8 (%"class.std::ctype"*, i8)** %102, align 8
  %104 = call signext i8 %103(%"class.std::ctype"* nonnull align 8 dereferenceable(570) %89, i8 signext 10)
  br label %105

105:                                              ; preds = %96, %99
  %106 = phi i8 [ %98, %96 ], [ %104, %99 ]
  %107 = call nonnull align 8 dereferenceable(8) %"class.std::basic_ostream"* @_ZNSo3putEc(%"class.std::basic_ostream"* nonnull align 8 dereferenceable(8) @_ZSt4cout, i8 signext %106)
  %108 = call nonnull align 8 dereferenceable(8) %"class.std::basic_ostream"* @_ZNSo5flushEv(%"class.std::basic_ostream"* nonnull align 8 dereferenceable(8) %107)
  call void @llvm.lifetime.end.p0i8(i64 100, i8* nonnull %3) #8
  ret i32 0
}

; Function Attrs: argmemonly mustprogress nofree nosync nounwind willreturn
declare void @llvm.lifetime.start.p0i8(i64 immarg, i8* nocapture) #4

; Function Attrs: argmemonly mustprogress nofree nounwind readonly willreturn
declare i64 @strlen(i8* nocapture) local_unnamed_addr #5

; Function Attrs: argmemonly mustprogress nofree nosync nounwind willreturn
declare void @llvm.lifetime.end.p0i8(i64 immarg, i8* nocapture) #4

declare nonnull align 8 dereferenceable(16) %"class.std::basic_istream"* @_ZNSi7getlineEPclc(%"class.std::basic_istream"* nonnull align 8 dereferenceable(16), i8*, i64, i8 signext) local_unnamed_addr #0

; Function Attrs: noreturn
declare void @_ZSt16__throw_bad_castv() local_unnamed_addr #6

declare void @_ZNKSt5ctypeIcE13_M_widen_initEv(%"class.std::ctype"* nonnull align 8 dereferenceable(570)) local_unnamed_addr #0

declare nonnull align 8 dereferenceable(8) %"class.std::basic_ostream"* @_ZSt16__ostream_insertIcSt11char_traitsIcEERSt13basic_ostreamIT_T0_ES6_PKS3_l(%"class.std::basic_ostream"* nonnull align 8 dereferenceable(8), i8*, i64) local_unnamed_addr #0

declare nonnull align 8 dereferenceable(8) %"class.std::basic_ostream"* @_ZNSo3putEc(%"class.std::basic_ostream"* nonnull align 8 dereferenceable(8), i8 signext) local_unnamed_addr #0

declare nonnull align 8 dereferenceable(8) %"class.std::basic_ostream"* @_ZNSo5flushEv(%"class.std::basic_ostream"* nonnull align 8 dereferenceable(8)) local_unnamed_addr #0

; Function Attrs: sspstrong uwtable
define internal void @_GLOBAL__sub_I_14.cpp() #7 section ".text.startup" {
  tail call void @_ZNSt8ios_base4InitC1Ev(%"class.std::ios_base::Init"* nonnull align 1 dereferenceable(1) @_ZStL8__ioinit)
  %1 = tail call i32 @__cxa_atexit(void (i8*)* bitcast (void (%"class.std::ios_base::Init"*)* @_ZNSt8ios_base4InitD1Ev to void (i8*)*), i8* getelementptr inbounds (%"class.std::ios_base::Init", %"class.std::ios_base::Init"* @_ZStL8__ioinit, i64 0, i32 0), i8* nonnull @__dso_handle) #8
  ret void
}


!llvm.module.flags = !{!0, !1, !2, !3}
!llvm.ident = !{!4}

!0 = !{i32 1, !"wchar_size", i32 4}
!1 = !{i32 7, !"PIC Level", i32 2}
!2 = !{i32 7, !"PIE Level", i32 2}
!3 = !{i32 7, !"uwtable", i32 1}
!4 = !{!"clang version 13.0.0"}
!5 = !{!6, !6, i64 0}
!6 = !{!"vtable pointer", !7, i64 0}
!7 = !{!"Simple C++ TBAA"}
!8 = !{!9, !10, i64 240}
!9 = !{!"_ZTSSt9basic_iosIcSt11char_traitsIcEE", !10, i64 216, !11, i64 224, !12, i64 225, !10, i64 232, !10, i64 240, !10, i64 248, !10, i64 256}
!10 = !{!"any pointer", !11, i64 0}
!11 = !{!"omnipotent char", !7, i64 0}
!12 = !{!"bool", !11, i64 0}
!13 = !{!14, !11, i64 56}
!14 = !{!"_ZTSSt5ctypeIcE", !10, i64 16, !12, i64 24, !10, i64 32, !10, i64 40, !10, i64 48, !11, i64 56, !11, i64 57, !11, i64 313, !11, i64 569}
!15 = !{!11, !11, i64 0}
!16 = distinct !{!16, !17}
!17 = !{!"llvm.loop.mustprogress"}
!18 = distinct !{!18, !17}
!19 = distinct !{!19, !17}
